(dp0
S'doc_25'
p1
S'http://www.ics.uci.edu/computing/services/snapshot.php'
p2
sS'doc_24'
p3
S'http://www.ics.uci.edu/computing/services/restore.php'
p4
sS'doc_27'
p5
S'http://www.ics.uci.edu/%7elab/lab_schedule'
p6
sS'doc_26'
p7
S'http://www.ics.uci.edu/computing/linux/hosts.php'
p8
sS'doc_21'
p9
S'https://elms.ics.uci.edu'
p10
sS'doc_20'
p11
S'http://www.ics.uci.edu/computing/services/microsoft_imagine.php'
p12
sS'doc_23'
p13
S'http://www.ics.uci.edu/computing/account/mapdrive_win.php'
p14
sS'doc_22'
p15
S'http://www.ics.uci.edu/computing/account/faqs.php'
p16
sS'doc_29'
p17
S'https://support.ics.uci.edu/ics.system'
p18
sS'doc_28'
p19
S'http://www.ics.uci.edu/computing'
p20
sS'doc_258'
p21
S'https://grape.ics.uci.edu/wiki/public/wiki/cs222-2012-fall'
p22
sS'doc_211'
p23
S'http://sdcl.ics.uci.edu/research/past-projects/lighthouse'
p24
sS'doc_210'
p25
S'http://www.ics.uci.edu/informatics/ugrad'
p26
sS'doc_128'
p27
S'http://ngs.ics.uci.edu/professionalsocial/recognitions'
p28
sS'doc_138'
p29
S'http://ngs.ics.uci.edu/professionalsocial'
p30
sS'doc_139'
p31
S'http://vision.ics.uci.edu/pocv2012/index.html'
p32
sS'doc_235'
p33
S'http://www.ics.uci.edu/wiki/public/attachment/wiki/cs122b-2018-winter-project3/Employee.java'
p34
sS'doc_234'
p35
S'https://grape.ics.uci.edu/wiki/public/wiki/cs122b-2018-winter'
p36
sS'doc_233'
p37
S'http://cloudberry.ics.uci.edu/demos/twittermap'
p38
sS'doc_232'
p39
S'https://chenli.ics.uci.edu'
p40
sS'doc_231'
p41
S'http://futurehealth.ics.uci.edu/people'
p42
sS'doc_230'
p43
S'http://www.ics.uci.edu/~theory/269'
p44
sS'doc_130'
p45
S'http://ngs.ics.uci.edu/research/research-papers/experiential-computing'
p46
sS'doc_131'
p47
S'http://www.ics.uci.edu/~fowlkes'
p48
sS'doc_132'
p49
S'http://vision.ics.uci.edu/people/6.html'
p50
sS'doc_133'
p51
S'http://www.ics.uci.edu/people/7.html'
p52
sS'doc_134'
p53
S'http://ngs.ics.uci.edu/entrepreneurship/past-companies'
p54
sS'doc_135'
p55
S'http://www.ics.uci.edu/~stasio'
p56
sS'doc_136'
p57
S'http://www.ics.uci.edu/~stasio/Papers/cjkt04-abs.html'
p58
sS'doc_137'
p59
S'http://www.ics.uci.edu/~stasio/Papers/jsy04-abs.html'
p60
sS'doc_10'
p61
S'http://hombao.ics.uci.edu'
p62
sS'doc_11'
p63
S'http://www.ics.uci.edu/%7Edjr/DebraJRichardson/SE4S.html'
p64
sS'doc_12'
p65
S'http://www.ics.uci.edu/ugrad/resources/index'
p66
sS'doc_13'
p67
S'http://honors.ics.uci.edu'
p68
sS'doc_14'
p69
S'https://honors.ics.uci.edu/graduate-school-resources'
p70
sS'doc_15'
p71
S'http://www.ics.uci.edu/~develop/Lectures/GradPanel11Exports'
p72
sS'doc_16'
p73
S'http://www.ics.uci.edu/computing/account/new'
p74
sS'doc_17'
p75
S'http://www.ics.uci.edu/computing/services/msoffice.php'
p76
sS'doc_18'
p77
S'http://www.ics.uci.edu/computing/contact/staff.php'
p78
sS'doc_19'
p79
S'http://www.ics.uci.edu/computing/linux/modules.php'
p80
sS'doc_159'
p81
S'http://www.ics.uci.edu/~stasio/winter04/ics280.html'
p82
sS'doc_208'
p83
S'http://www.ics.uci.edu/~dramanan'
p84
sS'doc_219'
p85
S'http://www.ics.uci.edu/~sharad'
p86
sS'doc_189'
p87
S'http://www.ics.uci.edu/~yamingy/npmle.r'
p88
sS'doc_188'
p89
S'http://www.ics.uci.edu/statistics/faculty'
p90
sS'doc_218'
p91
S'http://www.ics.uci.edu/~irani'
p92
sS'doc_185'
p93
S'http://www.ics.uci.edu/~yamingy'
p94
sS'doc_184'
p95
S'http://www.ics.uci.edu/~chenli'
p96
sS'doc_187'
p97
S'http://www.ics.uci.edu/~yamingy/cocktail_demo1.r'
p98
sS'doc_186'
p99
S'http://www.ics.uci.edu/~yamingy/cocktail_demo3.r'
p100
sS'doc_181'
p101
S'http://www.ics.uci.edu/~tlatoza'
p102
sS'doc_180'
p103
S'http://www.ics.uci.edu/~jsolson'
p104
sS'doc_183'
p105
S'http://futurehealth.ics.uci.edu/news'
p106
sS'doc_182'
p107
S'http://sdcl.ics.uci.edu/papers/technical-reports'
p108
sS'doc_105'
p109
S'http://emj.ics.uci.edu/papers/optimization-papers'
p110
sS'doc_104'
p111
S'http://www.ics.uci.edu/community/news/press'
p112
sS'doc_107'
p113
S'http://www.ics.uci.edu/computing/contact'
p114
sS'doc_106'
p115
S'http://computableplant.ics.uci.edu/~guy'
p116
sS'doc_101'
p117
S'http://www.ics.uci.edu/ugrad/policies/Add_Drop_ChangeOption'
p118
sS'doc_100'
p119
S'http://www.ics.uci.edu/~lab/lab_schedule'
p120
sS'doc_103'
p121
S'http://www.ics.uci.edu/%7elab'
p122
sS'doc_102'
p123
S'http://www.ics.uci.edu/ugrad/sao'
p124
sS'doc_152'
p125
S'http://auge.ics.uci.edu/eventshop'
p126
sS'doc_109'
p127
S'http://www.ics.uci.edu/ugrad/degrees/degree_cse.php'
p128
sS'doc_108'
p129
S'http://www.ics.uci.edu/~rickl'
p130
sS'doc_153'
p131
S'http://futurehealth.ics.uci.edu'
p132
sS'doc_224'
p133
S'https://grape.ics.uci.edu/wiki/fr'
p134
sS'doc_225'
p135
S'http://www.ics.uci.edu/chile'
p136
sS'doc_226'
p137
S'http://www.ics.uci.edu/SAFIRE'
p138
sS'doc_227'
p139
S'http://www.ics.uci.edu/~mlevorat/ '
p140
sS'doc_220'
p141
S'http://cert.ics.uci.edu'
p142
sS'doc_221'
p143
S'http://isg.ics.uci.edu/events.html'
p144
sS'doc_222'
p145
S'http://www.ics.uci.edu/~rares/isg-logo'
p146
sS'doc_223'
p147
S'http://fr.ics.uci.edu'
p148
sS'doc_228'
p149
S'http://sdcl.ics.uci.edu/papers'
p150
sS'doc_229'
p151
S'http://www.ics.uci.edu/~dan'
p152
sS'doc_263'
p153
S'http://www.ics.uci.edu/wiki/public/attachment/wiki/cs122b-2018-winter-project3/DomParserExample.java'
p154
sS'doc_198'
p155
S'http://www.ics.uci.edu/~yamingy/cocktail.r'
p156
sS'doc_199'
p157
S'http://www.ics.uci.edu/~stasio/fall04/ics268.html'
p158
sS'doc_192'
p159
S'http://www.ics.uci.edu/~sysarch/projects/OpenCV.html'
p160
sS'doc_193'
p161
S'http://www.ics.uci.edu/~minhaenl'
p162
sS'doc_190'
p163
S'http://www.ics.uci.edu/~yamingy/npmle.c'
p164
sS'doc_191'
p165
S'http://www.ics.uci.edu/~alexv'
p166
sS'doc_196'
p167
S'http://www.ics.uci.edu/~skong2/pollen_BIC.html'
p168
sS'doc_197'
p169
S'http://www.ics.uci.edu/people/23.html'
p170
sS'doc_194'
p171
S'http://www.ics.uci.edu/~fowlkes/software.html'
p172
sS'doc_195'
p173
S'http://www.ics.uci.edu/~fowlkes/software/nca'
p174
sS'doc_112'
p175
S'http://www.ics.uci.edu/grad/courses'
p176
sS'doc_113'
p177
S'http://emj.ics.uci.edu/2012/12'
p178
sS'doc_110'
p179
S'http://www.ics.uci.edu/computing/windows'
p180
sS'doc_111'
p181
S'http://www.ics.uci.edu/grad/courses/index'
p182
sS'doc_116'
p183
S'http://emj.ics.uci.edu/papers/computational-field-geology'
p184
sS'doc_117'
p185
S'http://www.ics.uci.edu/~hombao/hernando.html'
p186
sS'doc_114'
p187
S'http://www.ics.uci.edu/community/events/competition'
p188
sS'doc_115'
p189
S'http://www.ics.uci.edu/community/events'
p190
sS'doc_118'
p191
S'http://www.ics.uci.edu/computing/account/quota.php'
p192
sS'doc_119'
p193
S'http://www.ics.uci.edu/%7edgillen'
p194
sS'doc_98'
p195
S'http://emj.ics.uci.edu/cv'
p196
sS'doc_99'
p197
S'http://www.ics.uci.edu/about'
p198
sS'doc_213'
p199
S'http://cbcl.ics.uci.edu/doku.php/publications'
p200
sS'doc_212'
p201
S'http://www.ics.uci.edu/~xhx'
p202
sS'doc_215'
p203
S'http://www.ics.uci.edu/~xhx/project/mdos'
p204
sS'doc_214'
p205
S'http://hobbes.ics.uci.edu'
p206
sS'doc_217'
p207
S'http://ngs.ics.uci.edu/personal/favorite-quotes'
p208
sS'doc_216'
p209
S'http://ipubmed.ics.uci.edu'
p210
sS'doc_90'
p211
S'http://computableplant.ics.uci.edu/~companib'
p212
sS'doc_91'
p213
S'http://computableplant.ics.uci.edu/~dorendor/thesis'
p214
sS'doc_92'
p215
S'http://www.ics.uci.edu/intranet'
p216
sS'doc_93'
p217
S'http://www.ics.uci.edu/grad/funding/index'
p218
sS'doc_94'
p219
S'http://www.ics.uci.edu/grad/funding'
p220
sS'doc_95'
p221
S'http://www.ics.uci.edu/facebook'
p222
sS'doc_96'
p223
S'http://www.ics.uci.edu/ugrad/admissions/transfer/index.php'
p224
sS'doc_97'
p225
S'https://honors.ics.uci.edu/contact-us'
p226
sS'doc_78'
p227
S'http://emj.ics.uci.edu/grand-questions'
p228
sS'doc_79'
p229
S'http://computableplant.ics.uci.edu/sw/CambiumPlenum'
p230
sS'doc_72'
p231
S'http://emj.ics.uci.edu/talks'
p232
sS'doc_73'
p233
S'http://emj.ics.uci.edu/software/cambium-model-translation-software'
p234
sS'doc_70'
p235
S'http://emj.ics.uci.edu/topics'
p236
sS'doc_71'
p237
S'http://emj.ics.uci.edu/papers/cognition-papers'
p238
sS'doc_76'
p239
S'http://emj.ics.uci.edu/papers/modeling-frameworks-papers'
p240
sS'doc_77'
p241
S'http://computableplant.ics.uci.edu/papers/XXX'
p242
sS'doc_74'
p243
S'http://emj.ics.uci.edu/wp-content/emj/uploads/\narXiv_Mjolsness_1212.0582.pdf'
p244
sS'doc_75'
p245
S'http://www.ics.uci.edu/~emj/index_2012.html'
p246
sS'doc_260'
p247
S'http://www.ics.uci.edu/wiki/public/raw-attachment/wiki/cs122b-2017-winter-project1/JDBC3.java'
p248
sS'doc_261'
p249
S'http://www.ics.uci.edu/wiki/public/raw-attachment/wiki/cs122b-2017-spring-project3/DomParserExample.java'
p250
sS'doc_87'
p251
S'http://emj.ics.uci.edu/phd-theses'
p252
sS'doc_86'
p253
S'http://www.ics.uci.edu/community/icsjobs'
p254
sS'doc_85'
p255
S'http://www.ics.uci.edu/computing/linux/security.php'
p256
sS'doc_84'
p257
S'http://computableplant.ics.uci.edu/sw/CambiumOrganism'
p258
sS'doc_83'
p259
S'http://www.ics.uci.edu/~alexv/pubs.html'
p260
sS'doc_82'
p261
S'http://www.ics.uci.edu/computing/students'
p262
sS'doc_81'
p263
S'http://computableplant.ics.uci.edu/papers/2005/CVPR-2005-Abstract.html'
p264
sS'doc_80'
p265
S'http://emj.ics.uci.edu/projects'
p266
sS'doc_89'
p267
S'http://computableplant.ics.uci.edu/hierleap'
p268
sS'doc_88'
p269
S'http://www.ics.uci.edu/~johnsong/thesis'
p270
sS'doc_167'
p271
S'http://sdcl.ics.uci.edu/research/crowd-development'
p272
sS'doc_166'
p273
S'http://sdcl.ics.uci.edu/mdp-lab'
p274
sS'doc_165'
p275
S'http://sdcl.ics.uci.edu/opportunities'
p276
sS'doc_164'
p277
S'http://sdcl.ics.uci.edu/research/crowd-fault-localization'
p278
sS'doc_163'
p279
S'http://sdcl.ics.uci.edu/research/past-projects/crowd-development'
p280
sS'doc_162'
p281
S'http://sdcl.ics.uci.edu/research'
p282
sS'doc_161'
p283
S'http://www.ics.uci.edu/~andre'
p284
sS'doc_158'
p285
S'http://ngs.ics.uci.edu/research/books'
p286
sS'doc_206'
p287
S'http://www.ics.uci.edu/~schark/krish/sigmetrics96.ps.Z'
p288
sS'doc_207'
p289
S'http://www.ics.uci.edu/~schark/schark-ree.html'
p290
sS'doc_204'
p291
S'http://www.ics.uci.edu/~schark/ipps-final93.ps.Z'
p292
sS'doc_205'
p293
S'http://www.ics.uci.edu/~schark/veronica/thesis.ps.Z'
p294
sS'doc_202'
p295
S'http://www.ics.uci.edu/~yamingy/cocktail.m'
p296
sS'doc_200'
p297
S'http://www.ics.uci.edu/~stasio/fall04/reading.html'
p298
sS'doc_169'
p299
S'http://www.ics.uci.edu/~isaac'
p300
sS'doc_168'
p301
S'http://www.ics.uci.edu/~stasio/winter04/reading.html'
p302
sS'doc_69'
p303
S'http://emj.ics.uci.edu/papers/calculational-papers'
p304
sS'doc_68'
p305
S'http://emj.ics.uci.edu/i-htm'
p306
sS'doc_61'
p307
S'http://www.ics.uci.edu/about/videos/index.php'
p308
sS'doc_60'
p309
S'http://www.ics.uci.edu/statistics'
p310
sS'doc_63'
p311
S'http://www.ics.uci.edu/ugrad/sao/Course_updates'
p312
sS'doc_62'
p313
S'http://www.ics.uci.edu/about/about_facts.php'
p314
sS'doc_65'
p315
S'http://emj.ics.uci.edu/teaching'
p316
sS'doc_64'
p317
S'http://emj.ics.uci.edu/papers/machine-learning-papers'
p318
sS'doc_67'
p319
S'http://emj.ics.uci.edu/talks/talks-computational-biology'
p320
sS'doc_66'
p321
S'http://emj.ics.uci.edu/papers/vision-and-image-analysis-papers'
p322
sS'doc_239'
p323
S'https://grape.ics.uci.edu/wiki/public/wiki/cs122b-2017-spring-project1'
p324
sS'doc_237'
p325
S'https://grape.ics.uci.edu/wiki/public/wiki/cs122b-2017-spring'
p326
sS'doc_236'
p327
S'https://chenli.ics.uci.edu/entrepreneurship'
p328
sS'doc_174'
p329
S'http://www.ics.uci.edu/~klefstad'
p330
sS'doc_175'
p331
S'http://ngs.ics.uci.edu/professionalsocial/interviews'
p332
sS'doc_176'
p333
S'http://sdcl.ics.uci.edu/research/past-projects/code-orb-2'
p334
sS'doc_177'
p335
S'http://www.ics.uci.edu/~jsupanci'
p336
sS'doc_170'
p337
S'http://www.ics.uci.edu/%7Eisaac'
p338
sS'doc_171'
p339
S'http://ngs.ics.uci.edu/about-ramesh/news'
p340
sS'doc_172'
p341
S'http://www.ics.uci.edu/~shallman'
p342
sS'doc_173'
p343
S'http://www.ics.uci.edu/~yyang8'
p344
sS'doc_178'
p345
S'http://www.ics.uci.edu/~kay/labtutors'
p346
sS'doc_179'
p347
S'http://sdcl.ics.uci.edu/people'
p348
sS'doc_6'
p349
S'http://www.ics.uci.edu/grad'
p350
sS'doc_7'
p351
S'http://www.ics.uci.edu/ugrad/policies/Academic_Standing'
p352
sS'doc_4'
p353
S'http://www.ics.uci.edu/grad/admissions/index'
p354
sS'doc_5'
p355
S'http://www.ics.uci.edu/statistics/grad/index.php'
p356
sS'doc_2'
p357
S'http://www.ics.uci.edu/ugrad/degrees/Minors'
p358
sS'doc_3'
p359
S'http://www.ics.uci.edu/ugrad/policies/Grade_Options'
p360
sS'doc_0'
p361
S'http://www.ics.uci.edu'
p362
sS'doc_1'
p363
S'http://www.ics.uci.edu/ugrad'
p364
sS'doc_8'
p365
S'http://www.ics.uci.edu/ugrad/courses/index'
p366
sS'doc_9'
p367
S'http://www.ics.uci.edu/faculty/highlights'
p368
sS'doc_141'
p369
S'http://www.ics.uci.edu/~sjordan'
p370
sS'doc_140'
p371
S'http://ngs.ics.uci.edu/research/research-papers/computer-vision'
p372
sS'doc_143'
p373
S'http://www.ics.uci.edu/~fowlkes/publications.html'
p374
sS'doc_142'
p375
S'http://ngs.ics.uci.edu/teacher'
p376
sS'doc_145'
p377
S'http://www.ics.uci.edu/~dillenco'
p378
sS'doc_144'
p379
S'http://www.ics.uci.edu/~jpd'
p380
sS'doc_147'
p381
S'http://www.ics.uci.edu/~pattis/ICS-90/index.html'
p382
sS'doc_146'
p383
S'http://www.ics.uci.edu/~kay'
p384
sS'doc_149'
p385
S'http://www.ics.uci.edu/~kay/courses/398a/f17.html'
p386
sS'doc_148'
p387
S'http://www.ics.uci.edu/~kay/college.html'
p388
sS'doc_262'
p389
S'http://www.ics.uci.edu/wiki/public/attachment/wiki/cs122b-2017-spring-project4/AjaxTest.war'
p390
sS'doc_238'
p391
S'http://www.ics.uci.edu/wiki/public/raw-attachment/wiki/cs122b-2017-spring/BatchInsert.java'
p392
sS'doc_264'
p393
S'http://www.ics.uci.edu/wiki/public/wiki/cs122b-2018-winter'
p394
sS'doc_265'
p395
S'http://www.ics.uci.edu/wiki/public/raw-attachment/wiki/cs122b-2017-winter-project1/JDBC1.java'
p396
sS'doc_266'
p397
S'https://grape.ics.uci.edu/wiki/public/wiki/cs122b-2013-winter'
p398
sS'doc_267'
p399
S'https://chenli.ics.uci.edu/miscellaneous'
p400
sS'doc_201'
p401
S'http://www.ics.uci.edu/faculty/index.php'
p402
sS'doc_255'
p403
S'https://grape.ics.uci.edu/wiki/public/wiki/cs122b-2012-spring'
p404
sS'doc_254'
p405
S'http://cherry.ics.uci.edu'
p406
sS'doc_257'
p407
S'http://chime.ics.uci.edu'
p408
sS'doc_256'
p409
S'http://flamingo.ics.uci.edu/releases/1.0'
p410
sS'doc_251'
p411
S'http://www.ics.uci.edu/wiki/public/raw-attachment/wiki/cs122b-2017-spring-project1/data.sql'
p412
sS'doc_250'
p413
S'https://grape.ics.uci.edu/wiki/public/wiki/cs122b-2017-winter-project1'
p414
sS'doc_253'
p415
S'http://asterixdb.ics.uci.edu/documentation/index.html'
p416
sS'doc_252'
p417
S'https://chenli.ics.uci.edu/news'
p418
sS'doc_259'
p419
S'http://www.ics.uci.edu/wiki/public/raw-attachment/wiki/cs122b-2017-spring-project3/TomcatFormReCaptcha.2.war'
p420
sS'doc_129'
p421
S'http://www.ics.uci.edu/~gbowker'
p422
sS'doc_54'
p423
S'http://www.ics.uci.edu/ugrad/distribution/index.php'
p424
sS'doc_55'
p425
S'http://www.ics.uci.edu/ugrad/admissions/index.php'
p426
sS'doc_56'
p427
S'http://www.ics.uci.edu/about/bren'
p428
sS'doc_57'
p429
S'http://www.ics.uci.edu/ugrad/life/index.php'
p430
sS'doc_50'
p431
S'https://ugradforms.ics.uci.edu'
p432
sS'doc_51'
p433
S'http://www.ics.uci.edu/computing/unix'
p434
sS'doc_52'
p435
S'http://www.ics.uci.edu/grad/policies/index.php'
p436
sS'doc_53'
p437
S'http://www.ics.uci.edu/computing/students/index.php'
p438
sS'doc_156'
p439
S'http://futurehealth.ics.uci.edu/resources/videos'
p440
sS'doc_157'
p441
S'http://futurehealth.ics.uci.edu/resources/knowledge-repository'
p442
sS'doc_154'
p443
S'http://futurehealth.ics.uci.edu/resources'
p444
sS'doc_155'
p445
S'http://futurehealth.ics.uci.edu/news-events/uci-seminars'
p446
sS'doc_58'
p447
S'http://www.ics.uci.edu/%7ewics'
p448
sS'doc_59'
p449
S'http://www.ics.uci.edu/ugrad/life'
p450
sS'doc_150'
p451
S'http://www.ics.uci.edu/~dgillen'
p452
sS'doc_151'
p453
S'http://ngs.ics.uci.edu/research/projects'
p454
sS'doc_36'
p455
S'http://www.ics.uci.edu/community'
p456
sS'doc_37'
p457
S'http://www.ics.uci.edu/ugrad/QA_Graduation'
p458
sS'doc_34'
p459
S'http://www.ics.uci.edu/ugrad/resources'
p460
sS'doc_35'
p461
S'http://www.ics.uci.edu/community/alumni'
p462
sS'doc_32'
p463
S'https://honors.ics.uci.edu/program-overview/step-4-start-your-research'
p464
sS'doc_33'
p465
S'http://www.ics.uci.edu/%7esysarch'
p466
sS'doc_30'
p467
S'http://radicle.ics.uci.edu'
p468
sS'doc_31'
p469
S'http://www.ics.uci.edu/grad/admissions'
p470
sS'doc_160'
p471
S'http://www.ics.uci.edu/~skong2'
p472
sS'doc_38'
p473
S'http://www.ics.uci.edu/ugrad/policies/CS199_IN4MATX199'
p474
sS'doc_39'
p475
S'http://www.ics.uci.edu/about/equity'
p476
sS'doc_241'
p477
S'http://www.ics.uci.edu/wiki/public/raw-attachment/wiki/cs122b-2017-winter-project2/ShowItems.java'
p478
sS'doc_121'
p479
S'http://www.ics.uci.edu/faculty'
p480
sS'doc_209'
p481
S'http://www.ics.uci.edu/~majumder'
p482
sS'doc_242'
p483
S'https://grape.ics.uci.edu/wiki/public/wiki/cs122b-2017-spring-project3'
p484
sS'doc_243'
p485
S'https://grape.ics.uci.edu/wiki/public/wiki/cs122b-2017-spring-project4'
p486
sS'doc_240'
p487
S'https://grape.ics.uci.edu/wiki/public/wiki/cs122b-2017-spring-project2'
p488
sS'doc_120'
p489
S'https://honors.ics.uci.edu/program-overview/step-5-completing-the-program'
p490
sS'doc_246'
p491
S'http://www.ics.uci.edu/wiki/public/attachment/wiki/cs122b-2017-spring/AjaxTest.war'
p492
sS'doc_247'
p493
S'http://www.ics.uci.edu/wiki/public/raw-attachment/wiki/cs122b-2018-winter-project3/SAXParserExample.java'
p494
sS'doc_244'
p495
S'https://grape.ics.uci.edu/wiki/public/wiki/cs122b-2017-spring-project5'
p496
sS'doc_245'
p497
S'http://www.ics.uci.edu/wiki/public/attachment/wiki/cs122b-2017-winter-project2/TomcatTest.war'
p498
sS'doc_248'
p499
S'http://www.ics.uci.edu/wiki/public/wiki/cs122b-2017-spring'
p500
sS'doc_249'
p501
S'http://www.ics.uci.edu/wiki/public/attachment/wiki/cs122b-2017-spring-project1/JDBC3.java'
p502
sS'doc_203'
p503
S'http://www.ics.uci.edu/%7Eschark'
p504
sS'doc_43'
p505
S'http://www.ics.uci.edu/computing/linux/shell.php'
p506
sS'doc_42'
p507
S'http://www.ics.uci.edu/involved'
p508
sS'doc_41'
p509
S'http://www.ics.uci.edu/about/brenhall/index.php'
p510
sS'doc_40'
p511
S'https://honors.ics.uci.edu/program-overview/step-3-finding-a-faculty-advisor-and-taking-cs-h198'
p512
sS'doc_47'
p513
S'http://www.ics.uci.edu/grad/financial/index.php'
p514
sS'doc_46'
p515
S'http://www.ics.uci.edu/employment'
p516
sS'doc_45'
p517
S'http://www.ics.uci.edu/community/icsjobs/index.php'
p518
sS'doc_44'
p519
S'https://support.ics.uci.edu/passwd'
p520
sS'doc_123'
p521
S'http://www.ics.uci.edu/~nicolau'
p522
sS'doc_122'
p523
S'http://www.ics.uci.edu/~emilyo'
p524
sS'doc_49'
p525
S'http://www.ics.uci.edu/ugrad/sao/index.php'
p526
sS'doc_48'
p527
S'http://www.ics.uci.edu/ugrad/qa/index.php'
p528
sS'doc_127'
p529
S'http://ngs.ics.uci.edu/teaching/current-courses'
p530
sS'doc_126'
p531
S'http://ngs.ics.uci.edu/entrepreneurship/current-companies'
p532
sS'doc_125'
p533
S'http://ngs.ics.uci.edu'
p534
sS'doc_124'
p535
S'http://www.ics.uci.edu/~mjcarey'
p536
s.