(dp0
S'doc_25'
p1
S'http://www.ics.uci.edu/computing/services/snapshot.php'
p2
sS'doc_24'
p3
S'http://www.ics.uci.edu/computing/services/restore.php'
p4
sS'doc_27'
p5
S'http://www.ics.uci.edu/%7elab/lab_schedule'
p6
sS'doc_26'
p7
S'http://www.ics.uci.edu/computing/linux/hosts.php'
p8
sS'doc_21'
p9
S'https://elms.ics.uci.edu'
p10
sS'doc_20'
p11
S'http://www.ics.uci.edu/computing/services/microsoft_imagine.php'
p12
sS'doc_23'
p13
S'http://www.ics.uci.edu/computing/account/mapdrive_win.php'
p14
sS'doc_22'
p15
S'http://www.ics.uci.edu/computing/account/faqs.php'
p16
sS'doc_29'
p17
S'https://support.ics.uci.edu/ics.system'
p18
sS'doc_28'
p19
S'http://www.ics.uci.edu/computing'
p20
sS'doc_128'
p21
S'http://www.ics.uci.edu/computing/account/quota.php'
p22
sS'doc_138'
p23
S'http://ngs.ics.uci.edu/professionalsocial/recognitions'
p24
sS'doc_139'
p25
S'http://www.ics.uci.edu/~gbowker'
p26
sS'doc_130'
p27
S'https://honors.ics.uci.edu/program-overview/step-5-completing-the-program'
p28
sS'doc_131'
p29
S'http://www.ics.uci.edu/faculty'
p30
sS'doc_132'
p31
S'http://www.ics.uci.edu/~emilyo'
p32
sS'doc_133'
p33
S'http://www.ics.uci.edu/~nicolau'
p34
sS'doc_134'
p35
S'http://www.ics.uci.edu/~mjcarey'
p36
sS'doc_135'
p37
S'http://ngs.ics.uci.edu'
p38
sS'doc_136'
p39
S'http://ngs.ics.uci.edu/entrepreneurship/current-companies'
p40
sS'doc_137'
p41
S'http://ngs.ics.uci.edu/teaching/current-courses'
p42
sS'doc_10'
p43
S'http://hombao.ics.uci.edu'
p44
sS'doc_11'
p45
S'http://www.ics.uci.edu/%7Edjr/DebraJRichardson/SE4S.html'
p46
sS'doc_12'
p47
S'http://www.ics.uci.edu/ugrad/resources/index'
p48
sS'doc_13'
p49
S'http://honors.ics.uci.edu'
p50
sS'doc_14'
p51
S'https://honors.ics.uci.edu/graduate-school-resources'
p52
sS'doc_15'
p53
S'http://www.ics.uci.edu/~develop/Lectures/GradPanel11Exports'
p54
sS'doc_16'
p55
S'http://www.ics.uci.edu/computing/account/new'
p56
sS'doc_17'
p57
S'http://www.ics.uci.edu/computing/services/msoffice.php'
p58
sS'doc_18'
p59
S'http://www.ics.uci.edu/computing/contact/staff.php'
p60
sS'doc_19'
p61
S'http://www.ics.uci.edu/computing/linux/modules.php'
p62
sS'doc_105'
p63
S'https://honors.ics.uci.edu/contact-us'
p64
sS'doc_104'
p65
S'http://www.ics.uci.edu/ugrad/admissions/transfer/index.php'
p66
sS'doc_107'
p67
S'http://www.ics.uci.edu/about'
p68
sS'doc_106'
p69
S'http://emj.ics.uci.edu/cv'
p70
sS'doc_101'
p71
S'http://www.ics.uci.edu/events/2151008048453440'
p72
sS'doc_100'
p73
S'http://www.ics.uci.edu/events/175565496386487'
p74
sS'doc_103'
p75
S'http://www.ics.uci.edu/UCI.Informatics/posts/796978567166703'
p76
sS'doc_102'
p77
S'http://www.ics.uci.edu/UCIBrenICS/posts/10155465978416909'
p78
sS'doc_152'
p79
S'http://ngs.ics.uci.edu/teacher'
p80
sS'doc_109'
p81
S'http://www.ics.uci.edu/ugrad/policies/Add_Drop_ChangeOption'
p82
sS'doc_108'
p83
S'http://www.ics.uci.edu/~lab/lab_schedule'
p84
sS'doc_153'
p85
S'http://www.ics.uci.edu/~fowlkes/publications.html'
p86
sS'doc_112'
p87
S'http://www.ics.uci.edu/events/1992728694314499'
p88
sS'doc_113'
p89
S'http://www.ics.uci.edu/community/news/press'
p90
sS'doc_110'
p91
S'http://www.ics.uci.edu/ugrad/sao'
p92
sS'doc_111'
p93
S'http://www.ics.uci.edu/%7elab'
p94
sS'doc_116'
p95
S'http://www.ics.uci.edu/computing/contact'
p96
sS'doc_117'
p97
S'http://www.ics.uci.edu/~rickl'
p98
sS'doc_114'
p99
S'http://emj.ics.uci.edu/papers/optimization-papers'
p100
sS'doc_115'
p101
S'http://computableplant.ics.uci.edu/~guy'
p102
sS'doc_118'
p103
S'http://www.ics.uci.edu/ugrad/degrees/degree_cse.php'
p104
sS'doc_119'
p105
S'http://www.ics.uci.edu/computing/windows'
p106
sS'doc_98'
p107
S'http://www.ics.uci.edu/UCIBrenICS/videos/10154830677906909'
p108
sS'doc_99'
p109
S'http://www.ics.uci.edu/UCIBrenICS/posts/10155458860281909'
p110
sS'doc_90'
p111
S'http://computableplant.ics.uci.edu/~dorendor/thesis'
p112
sS'doc_91'
p113
S'http://www.ics.uci.edu/intranet'
p114
sS'doc_92'
p115
S'http://www.ics.uci.edu/grad/funding/index'
p116
sS'doc_93'
p117
S'http://www.ics.uci.edu/grad/funding'
p118
sS'doc_94'
p119
S'http://www.ics.uci.edu/facebook'
p120
sS'doc_95'
p121
S'http://www.ics.uci.edu/UCIBrenICS/posts/10155437953596909'
p122
sS'doc_96'
p123
S'http://www.ics.uci.edu/UCIBrenICS/videos/10155057859626909'
p124
sS'doc_97'
p125
S'http://www.ics.uci.edu/UCIBrenICS/posts/10155432923596909'
p126
sS'doc_78'
p127
S'http://computableplant.ics.uci.edu/sw/CambiumPlenum'
p128
sS'doc_79'
p129
S'http://emj.ics.uci.edu/projects'
p130
sS'doc_72'
p131
S'http://emj.ics.uci.edu/talks'
p132
sS'doc_73'
p133
S'http://emj.ics.uci.edu/software/cambium-model-translation-software'
p134
sS'doc_70'
p135
S'http://emj.ics.uci.edu/topics'
p136
sS'doc_71'
p137
S'http://emj.ics.uci.edu/papers/cognition-papers'
p138
sS'doc_76'
p139
S'http://emj.ics.uci.edu/papers/modeling-frameworks-papers'
p140
sS'doc_77'
p141
S'http://emj.ics.uci.edu/grand-questions'
p142
sS'doc_74'
p143
S'http://emj.ics.uci.edu/wp-content/emj/uploads/\narXiv_Mjolsness_1212.0582.pdf'
p144
sS'doc_75'
p145
S'http://www.ics.uci.edu/~emj/index_2012.html'
p146
sS'doc_87'
p147
S'http://www.ics.uci.edu/~johnsong/thesis'
p148
sS'doc_86'
p149
S'http://emj.ics.uci.edu/phd-theses'
p150
sS'doc_85'
p151
S'http://www.ics.uci.edu/community/icsjobs'
p152
sS'doc_84'
p153
S'http://www.ics.uci.edu/computing/linux/security.php'
p154
sS'doc_83'
p155
S'http://computableplant.ics.uci.edu/sw/CambiumOrganism'
p156
sS'doc_82'
p157
S'http://www.ics.uci.edu/~alexv/pubs.html'
p158
sS'doc_81'
p159
S'http://www.ics.uci.edu/computing/students'
p160
sS'doc_80'
p161
S'http://computableplant.ics.uci.edu/papers/2005/CVPR-2005-Abstract.html'
p162
sS'doc_89'
p163
S'http://computableplant.ics.uci.edu/~companib'
p164
sS'doc_88'
p165
S'http://computableplant.ics.uci.edu/hierleap'
p166
sS'doc_69'
p167
S'http://emj.ics.uci.edu/papers/calculational-papers'
p168
sS'doc_68'
p169
S'http://emj.ics.uci.edu/i-htm'
p170
sS'doc_61'
p171
S'http://www.ics.uci.edu/about/videos/index.php'
p172
sS'doc_60'
p173
S'http://www.ics.uci.edu/statistics'
p174
sS'doc_63'
p175
S'http://www.ics.uci.edu/ugrad/sao/Course_updates'
p176
sS'doc_62'
p177
S'http://www.ics.uci.edu/about/about_facts.php'
p178
sS'doc_65'
p179
S'http://emj.ics.uci.edu/teaching'
p180
sS'doc_64'
p181
S'http://emj.ics.uci.edu/papers/machine-learning-papers'
p182
sS'doc_67'
p183
S'http://emj.ics.uci.edu/talks/talks-computational-biology'
p184
sS'doc_66'
p185
S'http://emj.ics.uci.edu/papers/vision-and-image-analysis-papers'
p186
sS'doc_6'
p187
S'http://www.ics.uci.edu/grad'
p188
sS'doc_7'
p189
S'http://www.ics.uci.edu/ugrad/policies/Academic_Standing'
p190
sS'doc_4'
p191
S'http://www.ics.uci.edu/grad/admissions/index'
p192
sS'doc_5'
p193
S'http://www.ics.uci.edu/statistics/grad/index.php'
p194
sS'doc_2'
p195
S'http://www.ics.uci.edu/ugrad/degrees/Minors'
p196
sS'doc_3'
p197
S'http://www.ics.uci.edu/ugrad/policies/Grade_Options'
p198
sS'doc_0'
p199
S'http://www.ics.uci.edu'
p200
sS'doc_1'
p201
S'http://www.ics.uci.edu/ugrad'
p202
sS'doc_8'
p203
S'http://www.ics.uci.edu/ugrad/courses/index'
p204
sS'doc_9'
p205
S'http://www.ics.uci.edu/faculty/highlights'
p206
sS'doc_141'
p207
S'http://www.ics.uci.edu/~fowlkes'
p208
sS'doc_140'
p209
S'http://ngs.ics.uci.edu/research/research-papers/experiential-computing'
p210
sS'doc_143'
p211
S'http://www.ics.uci.edu/people/7.html'
p212
sS'doc_142'
p213
S'http://vision.ics.uci.edu/people/6.html'
p214
sS'doc_145'
p215
S'http://www.ics.uci.edu/~stasio'
p216
sS'doc_144'
p217
S'http://ngs.ics.uci.edu/entrepreneurship/past-companies'
p218
sS'doc_147'
p219
S'http://www.ics.uci.edu/~stasio/Papers/jsy04-abs.html'
p220
sS'doc_146'
p221
S'http://www.ics.uci.edu/~stasio/Papers/cjkt04-abs.html'
p222
sS'doc_149'
p223
S'http://vision.ics.uci.edu/pocv2012/index.html'
p224
sS'doc_148'
p225
S'http://ngs.ics.uci.edu/professionalsocial'
p226
sS'doc_129'
p227
S'http://www.ics.uci.edu/%7edgillen'
p228
sS'doc_54'
p229
S'http://www.ics.uci.edu/ugrad/distribution/index.php'
p230
sS'doc_55'
p231
S'http://www.ics.uci.edu/ugrad/admissions/index.php'
p232
sS'doc_56'
p233
S'http://www.ics.uci.edu/about/bren'
p234
sS'doc_57'
p235
S'http://www.ics.uci.edu/ugrad/life/index.php'
p236
sS'doc_50'
p237
S'https://ugradforms.ics.uci.edu'
p238
sS'doc_51'
p239
S'http://www.ics.uci.edu/computing/unix'
p240
sS'doc_52'
p241
S'http://www.ics.uci.edu/grad/policies/index.php'
p242
sS'doc_53'
p243
S'http://www.ics.uci.edu/computing/students/index.php'
p244
sS'doc_154'
p245
S'http://www.ics.uci.edu/~jpd'
p246
sS'doc_155'
p247
S'http://www.ics.uci.edu/~dillenco'
p248
sS'doc_58'
p249
S'http://www.ics.uci.edu/%7ewics'
p250
sS'doc_59'
p251
S'http://www.ics.uci.edu/ugrad/life'
p252
sS'doc_150'
p253
S'http://ngs.ics.uci.edu/research/research-papers/computer-vision'
p254
sS'doc_151'
p255
S'http://www.ics.uci.edu/~sjordan'
p256
sS'doc_36'
p257
S'http://www.ics.uci.edu/community'
p258
sS'doc_37'
p259
S'http://www.ics.uci.edu/ugrad/QA_Graduation'
p260
sS'doc_34'
p261
S'http://www.ics.uci.edu/ugrad/resources'
p262
sS'doc_35'
p263
S'http://www.ics.uci.edu/community/alumni'
p264
sS'doc_32'
p265
S'https://honors.ics.uci.edu/program-overview/step-4-start-your-research'
p266
sS'doc_33'
p267
S'http://www.ics.uci.edu/%7esysarch'
p268
sS'doc_30'
p269
S'http://radicle.ics.uci.edu'
p270
sS'doc_31'
p271
S'http://www.ics.uci.edu/grad/admissions'
p272
sS'doc_38'
p273
S'http://www.ics.uci.edu/ugrad/policies/CS199_IN4MATX199'
p274
sS'doc_39'
p275
S'http://www.ics.uci.edu/about/equity'
p276
sS'doc_121'
p277
S'http://www.ics.uci.edu/grad/courses'
p278
sS'doc_120'
p279
S'http://www.ics.uci.edu/grad/courses/index'
p280
sS'doc_43'
p281
S'http://www.ics.uci.edu/computing/linux/shell.php'
p282
sS'doc_42'
p283
S'http://www.ics.uci.edu/involved'
p284
sS'doc_41'
p285
S'http://www.ics.uci.edu/about/brenhall/index.php'
p286
sS'doc_40'
p287
S'https://honors.ics.uci.edu/program-overview/step-3-finding-a-faculty-advisor-and-taking-cs-h198'
p288
sS'doc_47'
p289
S'http://www.ics.uci.edu/grad/financial/index.php'
p290
sS'doc_46'
p291
S'http://www.ics.uci.edu/employment'
p292
sS'doc_45'
p293
S'http://www.ics.uci.edu/community/icsjobs/index.php'
p294
sS'doc_44'
p295
S'https://support.ics.uci.edu/passwd'
p296
sS'doc_123'
p297
S'http://www.ics.uci.edu/community/events/competition'
p298
sS'doc_122'
p299
S'http://emj.ics.uci.edu/2012/12'
p300
sS'doc_49'
p301
S'http://www.ics.uci.edu/ugrad/sao/index.php'
p302
sS'doc_48'
p303
S'http://www.ics.uci.edu/ugrad/qa/index.php'
p304
sS'doc_127'
p305
S'http://www.ics.uci.edu/reg'
p306
sS'doc_126'
p307
S'http://www.ics.uci.edu/~hombao/hernando.html'
p308
sS'doc_125'
p309
S'http://emj.ics.uci.edu/papers/computational-field-geology'
p310
sS'doc_124'
p311
S'http://www.ics.uci.edu/community/events'
p312
s.